target datalayout = "e-m:e-p270:32:32-p271:32:32-p272:64:64-i64:64-i128:128-f80:128-n8:16:32:64-S128"
target triple = "x86_64-pc-linux-gnu"

%"class.cvc5::internal::BitVector" = type { i32, %"class.cvc5::internal::Integer" }
%"class.cvc5::internal::Integer" = type { %class.__gmp_expr }
%class.__gmp_expr = type { [1 x %struct.__mpz_struct] }
%struct.__mpz_struct = type { i32, i32, ptr }
%"struct.cvc5::internal::BitVectorSize" = type { i32 }
%"struct.std::pair.7" = type <{ %"class.cvc5::internal::BitVector", i8, [7 x i8] }>

; Function Attrs: mustprogress uwtable
define linkonce_odr hidden void @_ZN10__gmp_exprIA1_12__mpz_structS1_EC2ERKS2_(ptr noundef nonnull align 8 dereferenceable(16) %0, ptr noundef nonnull align 8 dereferenceable(16) %1) unnamed_addr #4 comdat align 2 {
  %3 = alloca ptr, align 8
  %4 = alloca ptr, align 8
  store ptr %0, ptr %3, align 8, !tbaa !115
  store ptr %1, ptr %4, align 8, !tbaa !115
  %5 = load ptr, ptr %3, align 8
  %6 = getelementptr inbounds nuw %class.__gmp_expr, ptr %5, i32 0, i32 0
  %7 = getelementptr inbounds [1 x %struct.__mpz_struct], ptr %6, i64 0, i64 0
  %8 = load ptr, ptr %4, align 8, !tbaa !115
  %9 = getelementptr inbounds nuw %class.__gmp_expr, ptr %8, i32 0, i32 0
  %10 = getelementptr inbounds [1 x %struct.__mpz_struct], ptr %9, i64 0, i64 0
  call void @__gmpz_init_set(ptr noundef %7, ptr noundef %10)
  ret void
}

; Function Attrs: mustprogress uwtable
define linkonce_odr hidden void @_ZN4cvc58internal7IntegerC2ERKS1_(ptr noundef nonnull align 8 dereferenceable(16) %0, ptr noundef nonnull align 8 dereferenceable(16) %1) unnamed_addr #4 comdat align 2 {
  %3 = alloca ptr, align 8
  %4 = alloca ptr, align 8
  store ptr %0, ptr %3, align 8, !tbaa !37
  store ptr %1, ptr %4, align 8, !tbaa !37
  %5 = load ptr, ptr %3, align 8
  %6 = getelementptr inbounds nuw %"class.cvc5::internal::Integer", ptr %5, i32 0, i32 0
  %7 = load ptr, ptr %4, align 8, !tbaa !37
  %8 = getelementptr inbounds nuw %"class.cvc5::internal::Integer", ptr %7, i32 0, i32 0
  call void @_ZN10__gmp_exprIA1_12__mpz_structS1_EC2ERKS2_(ptr noundef nonnull align 8 dereferenceable(16) %6, ptr noundef nonnull align 8 dereferenceable(16) %8)
  ret void
}

; Function Attrs: mustprogress nounwind uwtable
define linkonce_odr hidden void @_ZN10__gmp_exprIA1_12__mpz_structS1_ED2Ev(ptr noundef nonnull align 8 dereferenceable(16) %0) unnamed_addr #7 comdat align 2 personality ptr @__gxx_personality_v0 {
  %2 = alloca ptr, align 8
  store ptr %0, ptr %2, align 8, !tbaa !115
  %3 = load ptr, ptr %2, align 8
  %4 = getelementptr inbounds nuw %class.__gmp_expr, ptr %3, i32 0, i32 0
  %5 = getelementptr inbounds [1 x %struct.__mpz_struct], ptr %4, i64 0, i64 0
  invoke void @__gmpz_clear(ptr noundef %5)
          to label %6 unwind label %7

6:                                                ; preds = %1
  ret void

7:                                                ; preds = %1
  %8 = landingpad { ptr, i32 }
          catch ptr null
  %9 = extractvalue { ptr, i32 } %8, 0
  call void @__clang_call_terminate(ptr %9) #20
  unreachable
}

; Function Attrs: inlinehint mustprogress uwtable
define linkonce_odr hidden void @_ZN4cvc58internal9BitVectorC2ERKS1_(ptr noundef nonnull align 8 dereferenceable(24) %0, ptr noundef nonnull align 8 dereferenceable(24) %1) unnamed_addr #8 comdat align 2 {
  %3 = alloca ptr, align 8
  %4 = alloca ptr, align 8
  store ptr %0, ptr %3, align 8, !tbaa !12
  store ptr %1, ptr %4, align 8, !tbaa !12
  %5 = load ptr, ptr %3, align 8
  %6 = getelementptr inbounds nuw %"class.cvc5::internal::BitVector", ptr %5, i32 0, i32 0
  %7 = load ptr, ptr %4, align 8, !tbaa !12
  %8 = getelementptr inbounds nuw %"class.cvc5::internal::BitVector", ptr %7, i32 0, i32 0
  %9 = load i32, ptr %8, align 8, !tbaa !39
  store i32 %9, ptr %6, align 8, !tbaa !39
  %10 = getelementptr inbounds nuw %"class.cvc5::internal::BitVector", ptr %5, i32 0, i32 1
  %11 = load ptr, ptr %4, align 8, !tbaa !12
  %12 = getelementptr inbounds nuw %"class.cvc5::internal::BitVector", ptr %11, i32 0, i32 1
  call void @_ZN4cvc58internal7IntegerC2ERKS1_(ptr noundef nonnull align 8 dereferenceable(16) %10, ptr noundef nonnull align 8 dereferenceable(16) %12)
  ret void
}

; Function Attrs: mustprogress nounwind uwtable
define linkonce_odr hidden void @_ZN4cvc58internal7IntegerD2Ev(ptr noundef nonnull align 8 dereferenceable(16) %0) unnamed_addr #7 comdat align 2 {
  %2 = alloca ptr, align 8
  store ptr %0, ptr %2, align 8, !tbaa !37
  %3 = load ptr, ptr %2, align 8
  %4 = getelementptr inbounds nuw %"class.cvc5::internal::Integer", ptr %3, i32 0, i32 0
  call void @_ZN10__gmp_exprIA1_12__mpz_structS1_ED2Ev(ptr noundef nonnull align 8 dereferenceable(16) %4) #3
  ret void
}

; Function Attrs: mustprogress uwtable
define linkonce_odr hidden void @_ZNSt4pairIN4cvc58internal9BitVectorEbEC2IRS2_bTnNSt9enable_ifIXaaclsr5_PCCPE22_MoveConstructiblePairIT_T0_EEclsr5_PCCPE30_ImplicitlyMoveConvertiblePairIS7_S8_EEEbE4typeELb1EEEOS7_OS8_(ptr noundef nonnull align 8 dereferenceable(25) %0, ptr noundef nonnull align 8 dereferenceable(24) %1, ptr noundef nonnull align 1 dereferenceable(1) %2) unnamed_addr #4 comdat align 2 {
  %4 = alloca ptr, align 8
  %5 = alloca ptr, align 8
  %6 = alloca ptr, align 8
  store ptr %0, ptr %4, align 8, !tbaa !69
  store ptr %1, ptr %5, align 8, !tbaa !12
  store ptr %2, ptr %6, align 8, !tbaa !47
  %7 = load ptr, ptr %4, align 8
  %8 = getelementptr inbounds nuw %"struct.std::pair.7", ptr %7, i32 0, i32 0
  %9 = load ptr, ptr %5, align 8, !tbaa !12
  call void @_ZN4cvc58internal9BitVectorC2ERKS1_(ptr noundef nonnull align 8 dereferenceable(24) %8, ptr noundef nonnull align 8 dereferenceable(24) %9)
  %10 = getelementptr inbounds nuw %"struct.std::pair.7", ptr %7, i32 0, i32 1
  %11 = load ptr, ptr %6, align 8, !tbaa !47
  %12 = load i8, ptr %11, align 1, !tbaa !19, !range !21, !noundef !22
  %13 = trunc i8 %12 to i1
  %14 = zext i1 %13 to i8
  store i8 %14, ptr %10, align 8, !tbaa !71
  ret void
}

; Function Attrs: mustprogress nounwind uwtable
define linkonce_odr hidden void @_ZN4cvc58internal9BitVectorD2Ev(ptr noundef nonnull align 8 dereferenceable(24) %0) unnamed_addr #7 comdat align 2 {
  %2 = alloca ptr, align 8
  store ptr %0, ptr %2, align 8, !tbaa !12
  %3 = load ptr, ptr %2, align 8
  %4 = getelementptr inbounds nuw %"class.cvc5::internal::BitVector", ptr %3, i32 0, i32 1
  call void @_ZN4cvc58internal7IntegerD2Ev(ptr noundef nonnull align 8 dereferenceable(16) %4) #3
  ret void
}

; Function Attrs: mustprogress nounwind uwtable
define linkonce_odr hidden noundef i32 @_ZNK4cvc58internal13BitVectorSizecvjEv(ptr noundef nonnull align 4 dereferenceable(4) %0) #7 comdat align 2 {
  %2 = alloca ptr, align 8
  store ptr %0, ptr %2, align 8, !tbaa !65
  %3 = load ptr, ptr %2, align 8
  %4 = getelementptr inbounds nuw %"struct.cvc5::internal::BitVectorSize", ptr %3, i32 0, i32 0
  %5 = load i32, ptr %4, align 4, !tbaa !67
  ret i32 %5
}

; Function Attrs: mustprogress uwtable
define hidden void @_ZNK4cvc58internal13FloatingPoint11convertToBVENS0_13BitVectorSizeERKNS0_12RoundingModeEb(ptr dead_on_unwind noalias writable sret(%"struct.std::pair.7") align 8 %0, ptr noundef nonnull align 8 dereferenceable(8) %1, i32 %2, ptr noundef nonnull align 4 dereferenceable(4) %3, i1 noundef zeroext %4) #4 align 2 personality ptr @__gxx_personality_v0 {
  %6 = alloca ptr, align 8
  %7 = alloca %"struct.cvc5::internal::BitVectorSize", align 4
  %8 = alloca ptr, align 8
  %9 = alloca ptr, align 8
  %10 = alloca i8, align 1
  %11 = alloca %"class.cvc5::internal::BitVector", align 8
  %12 = alloca %"struct.cvc5::internal::BitVectorSize", align 4
  %13 = alloca %"class.cvc5::internal::BitVector", align 8
  %14 = alloca ptr, align 8
  %15 = alloca i32, align 4
  %16 = alloca %"class.cvc5::internal::BitVector", align 8
  %17 = alloca %"struct.cvc5::internal::BitVectorSize", align 4
  %18 = alloca %"class.cvc5::internal::BitVector", align 8
  %19 = alloca i8, align 1
  store ptr %0, ptr %6, align 8
  %20 = getelementptr inbounds nuw %"struct.cvc5::internal::BitVectorSize", ptr %7, i32 0, i32 0
  store i32 %2, ptr %20, align 4
  store ptr %1, ptr %8, align 8, !tbaa !8
  store ptr %3, ptr %9, align 8, !tbaa !18
  %21 = zext i1 %4 to i8
  store i8 %21, ptr %10, align 1, !tbaa !19
  %22 = load ptr, ptr %8, align 8
  call void @llvm.lifetime.start.p0(i64 24, ptr %11) #3
  call void @llvm.memcpy.p0.p0.i64(ptr align 4 %12, ptr align 4 %7, i64 4, i1 false), !tbaa.struct !58
  %23 = load ptr, ptr %9, align 8, !tbaa !18
  %24 = load i8, ptr %10, align 1, !tbaa !19, !range !21, !noundef !22
  %25 = trunc i8 %24 to i1
  %26 = call noundef i32 @_ZNK4cvc58internal13BitVectorSizecvjEv(ptr noundef nonnull align 4 dereferenceable(4) %7)
  call void @_ZN4cvc58internal9BitVectorC2Ejj(ptr noundef nonnull align 8 dereferenceable(24) %13, i32 noundef %26, i32 noundef 0)
  %27 = getelementptr inbounds nuw %"struct.cvc5::internal::BitVectorSize", ptr %12, i32 0, i32 0
  %28 = load i32, ptr %27, align 4
  invoke void @_ZNK4cvc58internal13FloatingPoint16convertToBVTotalENS0_13BitVectorSizeERKNS0_12RoundingModeEbNS0_9BitVectorE(ptr dead_on_unwind writable sret(%"class.cvc5::internal::BitVector") align 8 %11, ptr noundef nonnull align 8 dereferenceable(8) %22, i32 %28, ptr noundef nonnull align 4 dereferenceable(4) %23, i1 noundef zeroext %25, ptr noundef %13)
          to label %29 unwind label %43

29:                                               ; preds = %5
  call void @_ZN4cvc58internal9BitVectorD2Ev(ptr noundef nonnull align 8 dereferenceable(24) %13) #3
  call void @llvm.lifetime.start.p0(i64 24, ptr %16) #3
  call void @llvm.memcpy.p0.p0.i64(ptr align 4 %17, ptr align 4 %7, i64 4, i1 false), !tbaa.struct !58
  %30 = load ptr, ptr %9, align 8, !tbaa !18
  %31 = load i8, ptr %10, align 1, !tbaa !19, !range !21, !noundef !22
  %32 = trunc i8 %31 to i1
  %33 = invoke noundef i32 @_ZNK4cvc58internal13BitVectorSizecvjEv(ptr noundef nonnull align 4 dereferenceable(4) %7)
          to label %34 unwind label %47

34:                                               ; preds = %29
  invoke void @_ZN4cvc58internal9BitVectorC2Ejj(ptr noundef nonnull align 8 dereferenceable(24) %18, i32 noundef %33, i32 noundef 1)
          to label %35 unwind label %47

35:                                               ; preds = %34
  %36 = getelementptr inbounds nuw %"struct.cvc5::internal::BitVectorSize", ptr %17, i32 0, i32 0
  %37 = load i32, ptr %36, align 4
  invoke void @_ZNK4cvc58internal13FloatingPoint16convertToBVTotalENS0_13BitVectorSizeERKNS0_12RoundingModeEbNS0_9BitVectorE(ptr dead_on_unwind writable sret(%"class.cvc5::internal::BitVector") align 8 %16, ptr noundef nonnull align 8 dereferenceable(8) %22, i32 %37, ptr noundef nonnull align 4 dereferenceable(4) %30, i1 noundef zeroext %32, ptr noundef %18)
          to label %38 unwind label %51

38:                                               ; preds = %35
  call void @_ZN4cvc58internal9BitVectorD2Ev(ptr noundef nonnull align 8 dereferenceable(24) %18) #3
  call void @llvm.lifetime.start.p0(i64 1, ptr %19) #3
  %39 = invoke noundef zeroext i1 @_ZN4cvc58internaleqERKNS0_9BitVectorES3_(ptr noundef nonnull align 8 dereferenceable(24) %11, ptr noundef nonnull align 8 dereferenceable(24) %16)
          to label %40 unwind label %55

40:                                               ; preds = %38
  %41 = zext i1 %39 to i8
  store i8 %41, ptr %19, align 1, !tbaa !19
  invoke void @_ZNSt4pairIN4cvc58internal9BitVectorEbEC2IRS2_bTnNSt9enable_ifIXaaclsr5_PCCPE22_MoveConstructiblePairIT_T0_EEclsr5_PCCPE30_ImplicitlyMoveConvertiblePairIS7_S8_EEEbE4typeELb1EEEOS7_OS8_(ptr noundef nonnull align 8 dereferenceable(25) %0, ptr noundef nonnull align 8 dereferenceable(24) %11, ptr noundef nonnull align 1 dereferenceable(1) %19)
          to label %42 unwind label %55

42:                                               ; preds = %40
  call void @llvm.lifetime.end.p0(i64 1, ptr %19) #3
  call void @_ZN4cvc58internal9BitVectorD2Ev(ptr noundef nonnull align 8 dereferenceable(24) %16) #3
  call void @llvm.lifetime.end.p0(i64 24, ptr %16) #3
  call void @_ZN4cvc58internal9BitVectorD2Ev(ptr noundef nonnull align 8 dereferenceable(24) %11) #3
  call void @llvm.lifetime.end.p0(i64 24, ptr %11) #3
  ret void

43:                                               ; preds = %5
  %44 = landingpad { ptr, i32 }
          cleanup
  %45 = extractvalue { ptr, i32 } %44, 0
  store ptr %45, ptr %14, align 8
  %46 = extractvalue { ptr, i32 } %44, 1
  store i32 %46, ptr %15, align 4
  call void @_ZN4cvc58internal9BitVectorD2Ev(ptr noundef nonnull align 8 dereferenceable(24) %13) #3
  br label %60

47:                                               ; preds = %34, %29
  %48 = landingpad { ptr, i32 }
          cleanup
  %49 = extractvalue { ptr, i32 } %48, 0
  store ptr %49, ptr %14, align 8
  %50 = extractvalue { ptr, i32 } %48, 1
  store i32 %50, ptr %15, align 4
  br label %59

51:                                               ; preds = %35
  %52 = landingpad { ptr, i32 }
          cleanup
  %53 = extractvalue { ptr, i32 } %52, 0
  store ptr %53, ptr %14, align 8
  %54 = extractvalue { ptr, i32 } %52, 1
  store i32 %54, ptr %15, align 4
  call void @_ZN4cvc58internal9BitVectorD2Ev(ptr noundef nonnull align 8 dereferenceable(24) %18) #3
  br label %59

55:                                               ; preds = %40, %38
  %56 = landingpad { ptr, i32 }
          cleanup
  %57 = extractvalue { ptr, i32 } %56, 0
  store ptr %57, ptr %14, align 8
  %58 = extractvalue { ptr, i32 } %56, 1
  store i32 %58, ptr %15, align 4
  call void @llvm.lifetime.end.p0(i64 1, ptr %19) #3
  call void @_ZN4cvc58internal9BitVectorD2Ev(ptr noundef nonnull align 8 dereferenceable(24) %16) #3
  br label %59

59:                                               ; preds = %55, %51, %47
  call void @llvm.lifetime.end.p0(i64 24, ptr %16) #3
  call void @_ZN4cvc58internal9BitVectorD2Ev(ptr noundef nonnull align 8 dereferenceable(24) %11) #3
  br label %60

60:                                               ; preds = %59, %43
  call void @llvm.lifetime.end.p0(i64 24, ptr %11) #3
  br label %61

61:                                               ; preds = %60
  %62 = load ptr, ptr %14, align 8
  %63 = load i32, ptr %15, align 4
  %64 = insertvalue { ptr, i32 } poison, ptr %62, 0
  %65 = insertvalue { ptr, i32 } %64, i32 %63, 1
  resume { ptr, i32 } %65
}