; Function Attrs: mustprogress uwtable
define hidden void @_ZNK4cvc58internal13FloatingPoint11convertToBVENS0_13BitVectorSizeERKNS0_12RoundingModeEb(ptr dead_on_unwind noalias writable sret(%"struct.std::pair.7") align 8 %0, ptr noundef nonnull readonly align 8 captures(none) dereferenceable(8) %1, i32 %2, ptr noundef nonnull align 4 dereferenceable(4) %3, i1 noundef zeroext %4) local_unnamed_addr #3 align 2 personality ptr @__gxx_personality_v0 {
  %6 = alloca %"class.cvc5::internal::BitVector", align 8
  %7 = alloca %"class.cvc5::internal::BitVector", align 8
  %8 = alloca %"class.cvc5::internal::BitVector", align 8
  %9 = alloca %"class.cvc5::internal::BitVector", align 8
  call void @llvm.lifetime.start.p0(i64 24, ptr nonnull %6) #20
  call void @_ZN4cvc58internal9BitVectorC2Ejj(ptr noundef nonnull align 8 dereferenceable(24) %7, i32 noundef %2, i32 noundef 0)
  invoke void @_ZNK4cvc58internal13FloatingPoint16convertToBVTotalENS0_13BitVectorSizeERKNS0_12RoundingModeEbNS0_9BitVectorE(ptr dead_on_unwind nonnull writable sret(%"class.cvc5::internal::BitVector") align 8 %6, ptr noundef nonnull align 8 dereferenceable(8) %1, i32 %2, ptr noundef nonnull align 4 dereferenceable(4) %3, i1 noundef zeroext %4, ptr noundef nonnull %7)
          to label %10 unwind label %36

10:                                               ; preds = %5
  %11 = getelementptr inbounds nuw i8, ptr %7, i64 8
  invoke void @__gmpz_clear(ptr noundef nonnull align 8 dereferenceable(16) %11)
          to label %_ZN4cvc58internal9BitVectorD2Ev.exit unwind label %12

12:                                               ; preds = %10
  %13 = landingpad { ptr, i32 }
          catch ptr null
  %14 = extractvalue { ptr, i32 } %13, 0
  call void @__clang_call_terminate(ptr %14) #19
  unreachable

_ZN4cvc58internal9BitVectorD2Ev.exit:             ; preds = %10
  call void @llvm.lifetime.start.p0(i64 24, ptr nonnull %8) #20
  invoke void @_ZN4cvc58internal9BitVectorC2Ejj(ptr noundef nonnull align 8 dereferenceable(24) %9, i32 noundef %2, i32 noundef 1)
          to label %15 unwind label %42

15:                                               ; preds = %_ZN4cvc58internal9BitVectorD2Ev.exit
  invoke void @_ZNK4cvc58internal13FloatingPoint16convertToBVTotalENS0_13BitVectorSizeERKNS0_12RoundingModeEbNS0_9BitVectorE(ptr dead_on_unwind nonnull writable sret(%"class.cvc5::internal::BitVector") align 8 %8, ptr noundef nonnull align 8 dereferenceable(8) %1, i32 %2, ptr noundef nonnull align 4 dereferenceable(4) %3, i1 noundef zeroext %4, ptr noundef nonnull %9)
          to label %16 unwind label %44

16:                                               ; preds = %15
  %17 = getelementptr inbounds nuw i8, ptr %9, i64 8
  invoke void @__gmpz_clear(ptr noundef nonnull align 8 dereferenceable(16) %17)
          to label %_ZN4cvc58internal9BitVectorD2Ev.exit11 unwind label %18

18:                                               ; preds = %16
  %19 = landingpad { ptr, i32 }
          catch ptr null
  %20 = extractvalue { ptr, i32 } %19, 0
  call void @__clang_call_terminate(ptr %20) #19
  unreachable

_ZN4cvc58internal9BitVectorD2Ev.exit11:           ; preds = %16
  %21 = invoke noundef zeroext i1 @_ZN4cvc58internaleqERKNS0_9BitVectorES3_(ptr noundef nonnull align 8 dereferenceable(24) %6, ptr noundef nonnull align 8 dereferenceable(24) %8)
          to label %22 unwind label %50

22:                                               ; preds = %_ZN4cvc58internal9BitVectorD2Ev.exit11
  %23 = load i32, ptr %6, align 8, !tbaa !24
  store i32 %23, ptr %0, align 8, !tbaa !24
  %24 = getelementptr inbounds nuw i8, ptr %0, i64 8
  %25 = getelementptr inbounds nuw i8, ptr %6, i64 8
  invoke void @__gmpz_init_set(ptr noundef nonnull align 8 dereferenceable(16) %24, ptr noundef nonnull align 8 dereferenceable(16) %25)
          to label %26 unwind label %50

26:                                               ; preds = %22
  %27 = zext i1 %21 to i8
  %28 = getelementptr inbounds nuw i8, ptr %0, i64 24
  store i8 %27, ptr %28, align 8, !tbaa !61
  %29 = getelementptr inbounds nuw i8, ptr %8, i64 8
  invoke void @__gmpz_clear(ptr noundef nonnull align 8 dereferenceable(16) %29)
          to label %_ZN4cvc58internal9BitVectorD2Ev.exit12 unwind label %30

30:                                               ; preds = %26
  %31 = landingpad { ptr, i32 }
          catch ptr null
  %32 = extractvalue { ptr, i32 } %31, 0
  call void @__clang_call_terminate(ptr %32) #19
  unreachable

_ZN4cvc58internal9BitVectorD2Ev.exit12:           ; preds = %26
  call void @llvm.lifetime.end.p0(i64 24, ptr nonnull %8) #20
  invoke void @__gmpz_clear(ptr noundef nonnull align 8 dereferenceable(16) %25)
          to label %_ZN4cvc58internal9BitVectorD2Ev.exit13 unwind label %33

33:                                               ; preds = %_ZN4cvc58internal9BitVectorD2Ev.exit12
  %34 = landingpad { ptr, i32 }
          catch ptr null
  %35 = extractvalue { ptr, i32 } %34, 0
  call void @__clang_call_terminate(ptr %35) #19
  unreachable

_ZN4cvc58internal9BitVectorD2Ev.exit13:           ; preds = %_ZN4cvc58internal9BitVectorD2Ev.exit12
  call void @llvm.lifetime.end.p0(i64 24, ptr nonnull %6) #20
  ret void

36:                                               ; preds = %5
  %37 = landingpad { ptr, i32 }
          cleanup
  %38 = getelementptr inbounds nuw i8, ptr %7, i64 8
  invoke void @__gmpz_clear(ptr noundef nonnull align 8 dereferenceable(16) %38)
          to label %_ZN4cvc58internal9BitVectorD2Ev.exit14 unwind label %39

39:                                               ; preds = %36
  %40 = landingpad { ptr, i32 }
          catch ptr null
  %41 = extractvalue { ptr, i32 } %40, 0
  call void @__clang_call_terminate(ptr %41) #19
  unreachable

42:                                               ; preds = %_ZN4cvc58internal9BitVectorD2Ev.exit
  %43 = landingpad { ptr, i32 }
          cleanup
  br label %_ZN4cvc58internal9BitVectorD2Ev.exit15

44:                                               ; preds = %15
  %45 = landingpad { ptr, i32 }
          cleanup
  %46 = getelementptr inbounds nuw i8, ptr %9, i64 8
  invoke void @__gmpz_clear(ptr noundef nonnull align 8 dereferenceable(16) %46)
          to label %_ZN4cvc58internal9BitVectorD2Ev.exit15 unwind label %47

47:                                               ; preds = %44
  %48 = landingpad { ptr, i32 }
          catch ptr null
  %49 = extractvalue { ptr, i32 } %48, 0
  call void @__clang_call_terminate(ptr %49) #19
  unreachable

50:                                               ; preds = %22, %_ZN4cvc58internal9BitVectorD2Ev.exit11
  %51 = landingpad { ptr, i32 }
          cleanup
  %52 = getelementptr inbounds nuw i8, ptr %8, i64 8
  invoke void @__gmpz_clear(ptr noundef nonnull align 8 dereferenceable(16) %52)
          to label %_ZN4cvc58internal9BitVectorD2Ev.exit15 unwind label %53

53:                                               ; preds = %50
  %54 = landingpad { ptr, i32 }
          catch ptr null
  %55 = extractvalue { ptr, i32 } %54, 0
  call void @__clang_call_terminate(ptr %55) #19
  unreachable

_ZN4cvc58internal9BitVectorD2Ev.exit15:           ; preds = %50, %44, %42
  %.pn = phi { ptr, i32 } [ %43, %42 ], [ %45, %44 ], [ %51, %50 ]
  call void @llvm.lifetime.end.p0(i64 24, ptr nonnull %8) #20
  %56 = getelementptr inbounds nuw i8, ptr %6, i64 8
  invoke void @__gmpz_clear(ptr noundef nonnull align 8 dereferenceable(16) %56)
          to label %_ZN4cvc58internal9BitVectorD2Ev.exit14 unwind label %57

57:                                               ; preds = %_ZN4cvc58internal9BitVectorD2Ev.exit15
  %58 = landingpad { ptr, i32 }
          catch ptr null
  %59 = extractvalue { ptr, i32 } %58, 0
  call void @__clang_call_terminate(ptr %59) #19
  unreachable

_ZN4cvc58internal9BitVectorD2Ev.exit14:           ; preds = %_ZN4cvc58internal9BitVectorD2Ev.exit15, %36
  %.pn.pn = phi { ptr, i32 } [ %37, %36 ], [ %.pn, %_ZN4cvc58internal9BitVectorD2Ev.exit15 ]
  call void @llvm.lifetime.end.p0(i64 24, ptr nonnull %6) #20
  resume { ptr, i32 } %.pn.pn
}